; Function Attrs: mustprogress uwtable
define noundef ptr @_ZN6icu_7511MeasureUnit6createEiiR10UErrorCode(i32 noundef %typeId, i32 noundef %subTypeId, ptr nocapture noundef nonnull align 4 dereferenceable(4) %status) local_unnamed_addr #1 align 2 personality ptr @__gxx_personality_v0 {
entry:
  %0 = load i32, ptr %status, align 4
  %cmp.i = icmp slt i32 %0, 1
  br i1 %cmp.i, label %if.end, label %return

if.end:                                           ; preds = %entry
  %call1 = tail call noundef ptr @_ZN6icu_757UMemorynwEm(i64 noundef 24) #17
  %new.isnull = icmp eq ptr %call1, null
  br i1 %new.isnull, label %if.then2, label %new.notnull

new.notnull:                                      ; preds = %if.end
  invoke void @_ZN6icu_7511MeasureUnitC1Eii(ptr noundef nonnull align 8 dereferenceable(19) %call1, i32 noundef %typeId, i32 noundef %subTypeId)
          to label %return unwind label %lpad

if.then2:                                         ; preds = %if.end
  store i32 7, ptr %status, align 4
  br label %return

lpad:                                             ; preds = %new.notnull
  %1 = landingpad { ptr, i32 }
          cleanup
  tail call void @_ZN6icu_757UMemorydlEPv(ptr noundef nonnull %call1) #17
  resume { ptr, i32 } %1

return:                                           ; preds = %new.notnull, %if.then2, %entry
  %retval.0 = phi ptr [ null, %entry ], [ null, %if.then2 ], [ %call1, %new.notnull ]
  ret ptr %retval.0
}